target datalayout = "e-m:e-p270:32:32-p271:32:32-p272:64:64-i64:64-i128:128-f80:128-n8:16:32:64-S128"
target triple = "x86_64-pc-linux-gnu"

%class.ptr_vector = type { %class.vector }
%class.vector = type { ptr }
%"struct.array::solver::var_data" = type { i8, i8, %class.ptr_vector, %class.ptr_vector, %class.ptr_vector }
%struct.theory_array_params = type <{ i8, i8, [2 x i8], i32, i8, i8, [2 x i8], i32, i8, i8, i8, i8, i32, i8, [3 x i8] }>

; Function Attrs: mustprogress uwtable
define hidden noundef zeroext i1 @_ZNK5array6solver18should_prop_upwardERKNS0_8var_dataE(ptr noundef nonnull align 8 dereferenceable(536) %0, ptr noundef nonnull align 8 dereferenceable(32) %1) #4 align 2 {
  %3 = alloca ptr, align 8
  %4 = alloca ptr, align 8
  store ptr %0, ptr %3, align 8, !tbaa !3
  store ptr %1, ptr %4, align 8, !tbaa !168
  %5 = load ptr, ptr %3, align 8
  %6 = call noundef nonnull align 8 dereferenceable(808) ptr @_ZNK3euf13th_euf_solver10get_configEv(ptr noundef nonnull align 8 dereferenceable(108) %5)
  %7 = getelementptr inbounds i8, ptr %6, i64 396
  %8 = getelementptr inbounds nuw %struct.theory_array_params, ptr %7, i32 0, i32 8
  %9 = load i8, ptr %8, align 4, !tbaa !353, !range !157, !noundef !158
  %10 = trunc i8 %9 to i1
  br i1 %10, label %16, label %11

11:                                               ; preds = %2
  %12 = load ptr, ptr %4, align 8, !tbaa !168
  %13 = getelementptr inbounds nuw %"struct.array::solver::var_data", ptr %12, i32 0, i32 0
  %14 = load i8, ptr %13, align 8, !tbaa !334, !range !157, !noundef !158
  %15 = trunc i8 %14 to i1
  br label %16

16:                                               ; preds = %11, %2
  %17 = phi i1 [ false, %2 ], [ %15, %11 ]
  ret i1 %17
}