; Function Attrs: mustprogress uwtable
define hidden noundef zeroext i1 @_ZNK5array6solver18should_prop_upwardERKNS0_8var_dataE(ptr noundef nonnull align 8 dereferenceable(536) %0, ptr noundef nonnull readonly align 8 captures(none) dereferenceable(32) %1) local_unnamed_addr #3 align 2 {
  %3 = tail call noundef nonnull align 8 dereferenceable(808) ptr @_ZNK3euf13th_euf_solver10get_configEv(ptr noundef nonnull align 8 dereferenceable(108) %0)
  %4 = getelementptr inbounds nuw i8, ptr %3, i64 412
  %5 = load i8, ptr %4, align 4, !tbaa !371, !range !166, !noundef !167
  %6 = trunc nuw i8 %5 to i1
  %7 = load i8, ptr %1, align 8, !range !166
  %8 = trunc nuw i8 %7 to i1
  %not. = xor i1 %6, true
  %9 = select i1 %not., i1 %8, i1 false
  ret i1 %9
}